	.file	"temp.cpp"
# GNU C++14 (Ubuntu 9.3.0-17ubuntu1~20.04) version 9.3.0 (x86_64-linux-gnu)
#	compiled by GNU C version 9.3.0, GMP version 6.2.0, MPFR version 4.0.2, MPC version 1.1.0, isl version isl-0.22.1-GMP

# GGC heuristics: --param ggc-min-expand=100 --param ggc-min-heapsize=131072
# options passed:  -fpreprocessed temp.ii -mtune=generic -march=x86-64
# -fverbose-asm -fasynchronous-unwind-tables -fstack-protector-strong
# -Wformat -Wformat-security -fstack-clash-protection -fcf-protection
# options enabled:  -fPIC -fPIE -faggressive-loop-optimizations
# -fassume-phsa -fasynchronous-unwind-tables -fauto-inc-dec -fcommon
# -fdelete-null-pointer-checks -fdwarf2-cfi-asm -fearly-inlining
# -feliminate-unused-debug-types -fexceptions -ffp-int-builtin-inexact
# -ffunction-cse -fgcse-lm -fgnu-runtime -fgnu-unique -fident
# -finline-atomics -fipa-stack-alignment -fira-hoist-pressure
# -fira-share-save-slots -fira-share-spill-slots -fivopts
# -fkeep-static-consts -fleading-underscore -flifetime-dse
# -flto-odr-type-merging -fmath-errno -fmerge-debug-strings -fpeephole
# -fplt -fprefetch-loop-arrays -freg-struct-return
# -fsched-critical-path-heuristic -fsched-dep-count-heuristic
# -fsched-group-heuristic -fsched-interblock -fsched-last-insn-heuristic
# -fsched-rank-heuristic -fsched-spec -fsched-spec-insn-heuristic
# -fsched-stalled-insns-dep -fschedule-fusion -fsemantic-interposition
# -fshow-column -fshrink-wrap-separate -fsigned-zeros
# -fsplit-ivs-in-unroller -fssa-backprop -fstack-clash-protection
# -fstack-protector-strong -fstdarg-opt -fstrict-volatile-bitfields
# -fsync-libcalls -ftrapping-math -ftree-cselim -ftree-forwprop
# -ftree-loop-if-convert -ftree-loop-im -ftree-loop-ivcanon
# -ftree-loop-optimize -ftree-parallelize-loops= -ftree-phiprop
# -ftree-reassoc -ftree-scev-cprop -funit-at-a-time -funwind-tables
# -fverbose-asm -fzero-initialized-in-bss -m128bit-long-double -m64 -m80387
# -malign-stringops -mavx256-split-unaligned-load
# -mavx256-split-unaligned-store -mfancy-math-387 -mfp-ret-in-387 -mfxsr
# -mglibc -mieee-fp -mlong-double-80 -mmmx -mno-sse4 -mpush-args -mred-zone
# -msse -msse2 -mstv -mtls-direct-seg-refs -mvzeroupper

	.text
	.section	.rodata
	.type	_ZStL19piecewise_construct, @object
	.size	_ZStL19piecewise_construct, 1
_ZStL19piecewise_construct:
	.zero	1
	.type	_ZStL13allocator_arg, @object
	.size	_ZStL13allocator_arg, 1
_ZStL13allocator_arg:
	.zero	1
	.type	_ZStL6ignore, @object
	.size	_ZStL6ignore, 1
_ZStL6ignore:
	.zero	1
	.local	_ZStL8__ioinit
	.comm	_ZStL8__ioinit,1,1
	.align 4
	.type	_ZN9__gnu_cxxL21__default_lock_policyE, @object
	.size	_ZN9__gnu_cxxL21__default_lock_policyE, 4
_ZN9__gnu_cxxL21__default_lock_policyE:
	.long	2
	.type	_ZStL10defer_lock, @object
	.size	_ZStL10defer_lock, 1
_ZStL10defer_lock:
	.zero	1
	.type	_ZStL11try_to_lock, @object
	.size	_ZStL11try_to_lock, 1
_ZStL11try_to_lock:
	.zero	1
	.type	_ZStL10adopt_lock, @object
	.size	_ZStL10adopt_lock, 1
_ZStL10adopt_lock:
	.zero	1
	.align 4
	.type	_ZNSt15regex_constantsL5icaseE, @object
	.size	_ZNSt15regex_constantsL5icaseE, 4
_ZNSt15regex_constantsL5icaseE:
	.long	1
	.align 4
	.type	_ZNSt15regex_constantsL6nosubsE, @object
	.size	_ZNSt15regex_constantsL6nosubsE, 4
_ZNSt15regex_constantsL6nosubsE:
	.long	2
	.align 4
	.type	_ZNSt15regex_constantsL8optimizeE, @object
	.size	_ZNSt15regex_constantsL8optimizeE, 4
_ZNSt15regex_constantsL8optimizeE:
	.long	4
	.align 4
	.type	_ZNSt15regex_constantsL7collateE, @object
	.size	_ZNSt15regex_constantsL7collateE, 4
_ZNSt15regex_constantsL7collateE:
	.long	8
	.align 4
	.type	_ZNSt15regex_constantsL10ECMAScriptE, @object
	.size	_ZNSt15regex_constantsL10ECMAScriptE, 4
_ZNSt15regex_constantsL10ECMAScriptE:
	.long	16
	.align 4
	.type	_ZNSt15regex_constantsL5basicE, @object
	.size	_ZNSt15regex_constantsL5basicE, 4
_ZNSt15regex_constantsL5basicE:
	.long	32
	.align 4
	.type	_ZNSt15regex_constantsL8extendedE, @object
	.size	_ZNSt15regex_constantsL8extendedE, 4
_ZNSt15regex_constantsL8extendedE:
	.long	64
	.align 4
	.type	_ZNSt15regex_constantsL3awkE, @object
	.size	_ZNSt15regex_constantsL3awkE, 4
_ZNSt15regex_constantsL3awkE:
	.long	128
	.align 4
	.type	_ZNSt15regex_constantsL4grepE, @object
	.size	_ZNSt15regex_constantsL4grepE, 4
_ZNSt15regex_constantsL4grepE:
	.long	256
	.align 4
	.type	_ZNSt15regex_constantsL5egrepE, @object
	.size	_ZNSt15regex_constantsL5egrepE, 4
_ZNSt15regex_constantsL5egrepE:
	.long	512
	.align 4
	.type	_ZNSt15regex_constantsL12__polynomialE, @object
	.size	_ZNSt15regex_constantsL12__polynomialE, 4
_ZNSt15regex_constantsL12__polynomialE:
	.long	1024
	.align 4
	.type	_ZNSt15regex_constantsL13match_defaultE, @object
	.size	_ZNSt15regex_constantsL13match_defaultE, 4
_ZNSt15regex_constantsL13match_defaultE:
	.zero	4
	.align 4
	.type	_ZNSt15regex_constantsL13match_not_bolE, @object
	.size	_ZNSt15regex_constantsL13match_not_bolE, 4
_ZNSt15regex_constantsL13match_not_bolE:
	.long	1
	.align 4
	.type	_ZNSt15regex_constantsL13match_not_eolE, @object
	.size	_ZNSt15regex_constantsL13match_not_eolE, 4
_ZNSt15regex_constantsL13match_not_eolE:
	.long	2
	.align 4
	.type	_ZNSt15regex_constantsL13match_not_bowE, @object
	.size	_ZNSt15regex_constantsL13match_not_bowE, 4
_ZNSt15regex_constantsL13match_not_bowE:
	.long	4
	.align 4
	.type	_ZNSt15regex_constantsL13match_not_eowE, @object
	.size	_ZNSt15regex_constantsL13match_not_eowE, 4
_ZNSt15regex_constantsL13match_not_eowE:
	.long	8
	.align 4
	.type	_ZNSt15regex_constantsL9match_anyE, @object
	.size	_ZNSt15regex_constantsL9match_anyE, 4
_ZNSt15regex_constantsL9match_anyE:
	.long	16
	.align 4
	.type	_ZNSt15regex_constantsL14match_not_nullE, @object
	.size	_ZNSt15regex_constantsL14match_not_nullE, 4
_ZNSt15regex_constantsL14match_not_nullE:
	.long	32
	.align 4
	.type	_ZNSt15regex_constantsL16match_continuousE, @object
	.size	_ZNSt15regex_constantsL16match_continuousE, 4
_ZNSt15regex_constantsL16match_continuousE:
	.long	64
	.align 4
	.type	_ZNSt15regex_constantsL16match_prev_availE, @object
	.size	_ZNSt15regex_constantsL16match_prev_availE, 4
_ZNSt15regex_constantsL16match_prev_availE:
	.long	128
	.align 4
	.type	_ZNSt15regex_constantsL14format_defaultE, @object
	.size	_ZNSt15regex_constantsL14format_defaultE, 4
_ZNSt15regex_constantsL14format_defaultE:
	.zero	4
	.align 4
	.type	_ZNSt15regex_constantsL10format_sedE, @object
	.size	_ZNSt15regex_constantsL10format_sedE, 4
_ZNSt15regex_constantsL10format_sedE:
	.long	256
	.align 4
	.type	_ZNSt15regex_constantsL14format_no_copyE, @object
	.size	_ZNSt15regex_constantsL14format_no_copyE, 4
_ZNSt15regex_constantsL14format_no_copyE:
	.long	512
	.align 4
	.type	_ZNSt15regex_constantsL17format_first_onlyE, @object
	.size	_ZNSt15regex_constantsL17format_first_onlyE, 4
_ZNSt15regex_constantsL17format_first_onlyE:
	.long	1024
	.align 4
	.type	_ZNSt15regex_constantsL13error_collateE, @object
	.size	_ZNSt15regex_constantsL13error_collateE, 4
_ZNSt15regex_constantsL13error_collateE:
	.zero	4
	.align 4
	.type	_ZNSt15regex_constantsL11error_ctypeE, @object
	.size	_ZNSt15regex_constantsL11error_ctypeE, 4
_ZNSt15regex_constantsL11error_ctypeE:
	.long	1
	.align 4
	.type	_ZNSt15regex_constantsL12error_escapeE, @object
	.size	_ZNSt15regex_constantsL12error_escapeE, 4
_ZNSt15regex_constantsL12error_escapeE:
	.long	2
	.align 4
	.type	_ZNSt15regex_constantsL13error_backrefE, @object
	.size	_ZNSt15regex_constantsL13error_backrefE, 4
_ZNSt15regex_constantsL13error_backrefE:
	.long	3
	.align 4
	.type	_ZNSt15regex_constantsL11error_brackE, @object
	.size	_ZNSt15regex_constantsL11error_brackE, 4
_ZNSt15regex_constantsL11error_brackE:
	.long	4
	.align 4
	.type	_ZNSt15regex_constantsL11error_parenE, @object
	.size	_ZNSt15regex_constantsL11error_parenE, 4
_ZNSt15regex_constantsL11error_parenE:
	.long	5
	.align 4
	.type	_ZNSt15regex_constantsL11error_braceE, @object
	.size	_ZNSt15regex_constantsL11error_braceE, 4
_ZNSt15regex_constantsL11error_braceE:
	.long	6
	.align 4
	.type	_ZNSt15regex_constantsL14error_badbraceE, @object
	.size	_ZNSt15regex_constantsL14error_badbraceE, 4
_ZNSt15regex_constantsL14error_badbraceE:
	.long	7
	.align 4
	.type	_ZNSt15regex_constantsL11error_rangeE, @object
	.size	_ZNSt15regex_constantsL11error_rangeE, 4
_ZNSt15regex_constantsL11error_rangeE:
	.long	8
	.align 4
	.type	_ZNSt15regex_constantsL11error_spaceE, @object
	.size	_ZNSt15regex_constantsL11error_spaceE, 4
_ZNSt15regex_constantsL11error_spaceE:
	.long	9
	.align 4
	.type	_ZNSt15regex_constantsL15error_badrepeatE, @object
	.size	_ZNSt15regex_constantsL15error_badrepeatE, 4
_ZNSt15regex_constantsL15error_badrepeatE:
	.long	10
	.align 4
	.type	_ZNSt15regex_constantsL16error_complexityE, @object
	.size	_ZNSt15regex_constantsL16error_complexityE, 4
_ZNSt15regex_constantsL16error_complexityE:
	.long	11
	.align 4
	.type	_ZNSt15regex_constantsL11error_stackE, @object
	.size	_ZNSt15regex_constantsL11error_stackE, 4
_ZNSt15regex_constantsL11error_stackE:
	.long	12
	.align 8
	.type	_ZNSt8__detailL19_S_invalid_state_idE, @object
	.size	_ZNSt8__detailL19_S_invalid_state_idE, 8
_ZNSt8__detailL19_S_invalid_state_idE:
	.quad	-1
.LC0:
	.string	"aeiou"
	.text
	.globl	main
	.type	main, @function
main:
.LFB8287:
	.cfi_startproc
	.cfi_personality 0x9b,DW.ref.__gxx_personality_v0
	.cfi_lsda 0x1b,.LLSDA8287
	endbr64	
	pushq	%rbp	#
	.cfi_def_cfa_offset 16
	.cfi_offset 6, -16
	movq	%rsp, %rbp	#,
	.cfi_def_cfa_register 6
	pushq	%rbx	#
	subq	$120, %rsp	#,
	.cfi_offset 3, -24
# temp.cpp:10: int main() {
	movq	%fs:40, %rax	# MEM[(<address-space-1> long unsigned int *)40B], tmp130
	movq	%rax, -24(%rbp)	# tmp130, D.168732
	xorl	%eax, %eax	# tmp130
# temp.cpp:11: 	std::ios_base::sync_with_stdio(false);
	movl	$0, %edi	#,
.LEHB0:
	call	_ZNSt8ios_base15sync_with_stdioEb@PLT	#
.LEHE0:
# temp.cpp:13: 	string vo = "aeiou";
	leaq	-116(%rbp), %rax	#, tmp102
	movq	%rax, %rdi	# tmp102,
	call	_ZNSaIcEC1Ev@PLT	#
	leaq	-116(%rbp), %rdx	#, tmp103
	leaq	-96(%rbp), %rax	#, tmp104
	leaq	.LC0(%rip), %rsi	#,
	movq	%rax, %rdi	# tmp104,
.LEHB1:
	call	_ZNSt7__cxx1112basic_stringIcSt11char_traitsIcESaIcEEC1EPKcRKS3_@PLT	#
.LEHE1:
	leaq	-116(%rbp), %rax	#, tmp105
	movq	%rax, %rdi	# tmp105,
	call	_ZNSaIcED1Ev@PLT	#
# temp.cpp:14: 	cin>>n;
	leaq	-120(%rbp), %rax	#, tmp106
	movq	%rax, %rsi	# tmp106,
	leaq	_ZSt3cin(%rip), %rdi	#,
.LEHB2:
	call	_ZNSirsERi@PLT	#
.L6:
# temp.cpp:15: 	while(n--){
	movl	-120(%rbp), %eax	# n, n.1_1
	leal	-1(%rax), %edx	#, _3
	movl	%edx, -120(%rbp)	# _3, n
	testl	%eax, %eax	# n.1_1
	setne	%al	#, retval.0_34
	testb	%al, %al	# retval.0_34
	je	.L2	#,
# temp.cpp:16: 		int vov = -1,cons=-1,count=0;
	movl	$-1, -104(%rbp)	#, vov
# temp.cpp:16: 		int vov = -1,cons=-1,count=0;
	movl	$-1, -100(%rbp)	#, cons
# temp.cpp:16: 		int vov = -1,cons=-1,count=0;
	movl	$0, -112(%rbp)	#, count
# temp.cpp:17: 		int _n;cin>>_n;
	leaq	-116(%rbp), %rax	#, tmp107
	movq	%rax, %rsi	# tmp107,
	leaq	_ZSt3cin(%rip), %rdi	#,
	call	_ZNSirsERi@PLT	#
.LEHE2:
# temp.cpp:18: 		string s;
	leaq	-64(%rbp), %rax	#, tmp108
	movq	%rax, %rdi	# tmp108,
	call	_ZNSt7__cxx1112basic_stringIcSt11char_traitsIcESaIcEEC1Ev@PLT	#
# temp.cpp:19: 		cin>>s;
	leaq	-64(%rbp), %rax	#, tmp109
	movq	%rax, %rsi	# tmp109,
	leaq	_ZSt3cin(%rip), %rdi	#,
.LEHB3:
	call	_ZStrsIcSt11char_traitsIcESaIcEERSt13basic_istreamIT_T0_ES7_RNSt7__cxx1112basic_stringIS4_S5_T1_EE@PLT	#
# temp.cpp:22: 		rep(i,_n){
	movl	$0, -108(%rbp)	#, i
.L5:
# temp.cpp:22: 		rep(i,_n){
	movl	-116(%rbp), %eax	# _n, _n.3_4
	cmpl	%eax, -108(%rbp)	# _n.3_4, i
	jge	.L3	#,
# temp.cpp:23: 			cons=vov=-1;
	movl	$-1, -104(%rbp)	#, vov
# temp.cpp:23: 			cons=vov=-1;
	movl	-104(%rbp), %eax	# vov, tmp110
	movl	%eax, -100(%rbp)	# tmp110, cons
# temp.cpp:24: 			vov = vo.find(s[i+1]);
	movl	-108(%rbp), %eax	# i, tmp111
	addl	$1, %eax	#, _5
# temp.cpp:24: 			vov = vo.find(s[i+1]);
	movslq	%eax, %rdx	# _5, _6
	leaq	-64(%rbp), %rax	#, tmp112
	movq	%rdx, %rsi	# _6,
	movq	%rax, %rdi	# tmp112,
	call	_ZNSt7__cxx1112basic_stringIcSt11char_traitsIcESaIcEEixEm@PLT	#
# temp.cpp:24: 			vov = vo.find(s[i+1]);
	movzbl	(%rax), %eax	# *_7, _8
	movsbl	%al, %ecx	# _8, _9
	leaq	-96(%rbp), %rax	#, tmp113
	movl	$0, %edx	#,
	movl	%ecx, %esi	# _9,
	movq	%rax, %rdi	# tmp113,
	call	_ZNKSt7__cxx1112basic_stringIcSt11char_traitsIcESaIcEE4findEcm@PLT	#
# temp.cpp:24: 			vov = vo.find(s[i+1]);
	movl	%eax, -104(%rbp)	# _10, vov
# temp.cpp:25: 			cons = vo.find(s[i]);
	movl	-108(%rbp), %eax	# i, tmp114
	movslq	%eax, %rdx	# tmp114, _11
	leaq	-64(%rbp), %rax	#, tmp115
	movq	%rdx, %rsi	# _11,
	movq	%rax, %rdi	# tmp115,
	call	_ZNSt7__cxx1112basic_stringIcSt11char_traitsIcESaIcEEixEm@PLT	#
# temp.cpp:25: 			cons = vo.find(s[i]);
	movzbl	(%rax), %eax	# *_12, _13
	movsbl	%al, %ecx	# _13, _14
	leaq	-96(%rbp), %rax	#, tmp116
	movl	$0, %edx	#,
	movl	%ecx, %esi	# _14,
	movq	%rax, %rdi	# tmp116,
	call	_ZNKSt7__cxx1112basic_stringIcSt11char_traitsIcESaIcEE4findEcm@PLT	#
# temp.cpp:25: 			cons = vo.find(s[i]);
	movl	%eax, -100(%rbp)	# _15, cons
# temp.cpp:27: 			if (vov>-1 && cons==-1)
	cmpl	$0, -104(%rbp)	#, vov
	js	.L4	#,
# temp.cpp:27: 			if (vov>-1 && cons==-1)
	cmpl	$-1, -100(%rbp)	#, cons
	jne	.L4	#,
# temp.cpp:28: 				++count;
	addl	$1, -112(%rbp)	#, count
.L4:
# temp.cpp:22: 		rep(i,_n){
	addl	$1, -108(%rbp)	#, i
	jmp	.L5	#
.L3:
# temp.cpp:30: 		cout<<count<<endl;
	movl	-112(%rbp), %eax	# count, tmp117
	movl	%eax, %esi	# tmp117,
	leaq	_ZSt4cout(%rip), %rdi	#,
	call	_ZNSolsEi@PLT	#
	movq	%rax, %rdx	#, _16
# temp.cpp:30: 		cout<<count<<endl;
	movq	_ZSt4endlIcSt11char_traitsIcEERSt13basic_ostreamIT_T0_ES6_@GOTPCREL(%rip), %rax	#, tmp118
	movq	%rax, %rsi	# tmp118,
	movq	%rdx, %rdi	# _16,
	call	_ZNSolsEPFRSoS_E@PLT	#
.LEHE3:
# temp.cpp:18: 		string s;
	leaq	-64(%rbp), %rax	#, tmp119
	movq	%rax, %rdi	# tmp119,
	call	_ZNSt7__cxx1112basic_stringIcSt11char_traitsIcESaIcEED1Ev@PLT	#
# temp.cpp:15: 	while(n--){
	jmp	.L6	#
.L2:
# temp.cpp:32:   return 0;
	movl	$0, %ebx	#, _35
# temp.cpp:13: 	string vo = "aeiou";
	leaq	-96(%rbp), %rax	#, tmp120
	movq	%rax, %rdi	# tmp120,
	call	_ZNSt7__cxx1112basic_stringIcSt11char_traitsIcESaIcEED1Ev@PLT	#
	movl	%ebx, %eax	# _35, <retval>
# temp.cpp:33: }
	movq	-24(%rbp), %rcx	# D.168732, tmp131
	xorq	%fs:40, %rcx	# MEM[(<address-space-1> long unsigned int *)40B], tmp131
	je	.L11	#,
	jmp	.L15	#
.L12:
	endbr64	
	movq	%rax, %rbx	#, tmp123
	leaq	-116(%rbp), %rax	#, tmp122
	movq	%rax, %rdi	# tmp122,
	call	_ZNSaIcED1Ev@PLT	#
	movq	%rbx, %rax	# tmp123, D.168729
	movq	%rax, %rdi	# D.168729,
.LEHB4:
	call	_Unwind_Resume@PLT	#
.L14:
	endbr64	
	movq	%rax, %rbx	#, tmp126
# temp.cpp:18: 		string s;
	leaq	-64(%rbp), %rax	#, tmp124
	movq	%rax, %rdi	# tmp124,
	call	_ZNSt7__cxx1112basic_stringIcSt11char_traitsIcESaIcEED1Ev@PLT	#
	jmp	.L10	#
.L13:
	endbr64	
	movq	%rax, %rbx	#, tmp125
.L10:
# temp.cpp:13: 	string vo = "aeiou";
	leaq	-96(%rbp), %rax	#, tmp129
	movq	%rax, %rdi	# tmp129,
	call	_ZNSt7__cxx1112basic_stringIcSt11char_traitsIcESaIcEED1Ev@PLT	#
	movq	%rbx, %rax	# tmp125, D.168730
	movq	%rax, %rdi	# D.168730,
	call	_Unwind_Resume@PLT	#
.LEHE4:
.L15:
# temp.cpp:33: }
	call	__stack_chk_fail@PLT	#
.L11:
	addq	$120, %rsp	#,
	popq	%rbx	#
	popq	%rbp	#
	.cfi_def_cfa 7, 8
	ret	
	.cfi_endproc
.LFE8287:
	.globl	__gxx_personality_v0
	.section	.gcc_except_table,"a",@progbits
.LLSDA8287:
	.byte	0xff
	.byte	0xff
	.byte	0x1
	.uleb128 .LLSDACSE8287-.LLSDACSB8287
.LLSDACSB8287:
	.uleb128 .LEHB0-.LFB8287
	.uleb128 .LEHE0-.LEHB0
	.uleb128 0
	.uleb128 0
	.uleb128 .LEHB1-.LFB8287
	.uleb128 .LEHE1-.LEHB1
	.uleb128 .L12-.LFB8287
	.uleb128 0
	.uleb128 .LEHB2-.LFB8287
	.uleb128 .LEHE2-.LEHB2
	.uleb128 .L13-.LFB8287
	.uleb128 0
	.uleb128 .LEHB3-.LFB8287
	.uleb128 .LEHE3-.LEHB3
	.uleb128 .L14-.LFB8287
	.uleb128 0
	.uleb128 .LEHB4-.LFB8287
	.uleb128 .LEHE4-.LEHB4
	.uleb128 0
	.uleb128 0
.LLSDACSE8287:
	.text
	.size	main, .-main
	.type	_Z41__static_initialization_and_destruction_0ii, @function
_Z41__static_initialization_and_destruction_0ii:
.LFB9616:
	.cfi_startproc
	endbr64	
	pushq	%rbp	#
	.cfi_def_cfa_offset 16
	.cfi_offset 6, -16
	movq	%rsp, %rbp	#,
	.cfi_def_cfa_register 6
	subq	$16, %rsp	#,
	movl	%edi, -4(%rbp)	# __initialize_p, __initialize_p
	movl	%esi, -8(%rbp)	# __priority, __priority
# temp.cpp:33: }
	cmpl	$1, -4(%rbp)	#, __initialize_p
	jne	.L18	#,
# temp.cpp:33: }
	cmpl	$65535, -8(%rbp)	#, __priority
	jne	.L18	#,
# /usr/include/c++/9/iostream:74:   static ios_base::Init __ioinit;
	leaq	_ZStL8__ioinit(%rip), %rdi	#,
	call	_ZNSt8ios_base4InitC1Ev@PLT	#
	leaq	__dso_handle(%rip), %rdx	#,
	leaq	_ZStL8__ioinit(%rip), %rsi	#,
	movq	_ZNSt8ios_base4InitD1Ev@GOTPCREL(%rip), %rax	#, tmp82
	movq	%rax, %rdi	# tmp82,
	call	__cxa_atexit@PLT	#
.L18:
# temp.cpp:33: }
	nop	
	leave	
	.cfi_def_cfa 7, 8
	ret	
	.cfi_endproc
.LFE9616:
	.size	_Z41__static_initialization_and_destruction_0ii, .-_Z41__static_initialization_and_destruction_0ii
	.type	_GLOBAL__sub_I_main, @function
_GLOBAL__sub_I_main:
.LFB9639:
	.cfi_startproc
	endbr64	
	pushq	%rbp	#
	.cfi_def_cfa_offset 16
	.cfi_offset 6, -16
	movq	%rsp, %rbp	#,
	.cfi_def_cfa_register 6
# temp.cpp:33: }
	movl	$65535, %esi	#,
	movl	$1, %edi	#,
	call	_Z41__static_initialization_and_destruction_0ii	#
	popq	%rbp	#
	.cfi_def_cfa 7, 8
	ret	
	.cfi_endproc
.LFE9639:
	.size	_GLOBAL__sub_I_main, .-_GLOBAL__sub_I_main
	.section	.init_array,"aw"
	.align 8
	.quad	_GLOBAL__sub_I_main
	.hidden	DW.ref.__gxx_personality_v0
	.weak	DW.ref.__gxx_personality_v0
	.section	.data.rel.local.DW.ref.__gxx_personality_v0,"awG",@progbits,DW.ref.__gxx_personality_v0,comdat
	.align 8
	.type	DW.ref.__gxx_personality_v0, @object
	.size	DW.ref.__gxx_personality_v0, 8
DW.ref.__gxx_personality_v0:
	.quad	__gxx_personality_v0
	.hidden	__dso_handle
	.ident	"GCC: (Ubuntu 9.3.0-17ubuntu1~20.04) 9.3.0"
	.section	.note.GNU-stack,"",@progbits
	.section	.note.gnu.property,"a"
	.align 8
	.long	 1f - 0f
	.long	 4f - 1f
	.long	 5
0:
	.string	 "GNU"
1:
	.align 8
	.long	 0xc0000002
	.long	 3f - 2f
2:
	.long	 0x3
3:
	.align 8
4:
